target datalayout = "e-m:e-p270:32:32-p271:32:32-p272:64:64-i64:64-i128:128-f80:128-n8:16:32:64-S128"
target triple = "x86_64-pc-linux-gnu"

%struct.mlib_image = type { i32, i32, i32, i32, i32, i32, ptr, ptr, [4 x i8], i32, i32, [3 x i32] }

; Function Attrs: nounwind uwtable
define internal i32 @mlib_ImageGetType(ptr noundef %0) #0 {
  %2 = alloca ptr, align 8
  store ptr %0, ptr %2, align 8
  %3 = load ptr, ptr %2, align 8
  %4 = getelementptr inbounds %struct.mlib_image, ptr %3, i32 0, i32 0
  %5 = load i32, ptr %4, align 8
  ret i32 %5
}

; Function Attrs: nounwind uwtable
define hidden i32 @mlib_ImageConvZeroEdge(ptr noundef %0, i32 noundef %1, i32 noundef %2, i32 noundef %3, i32 noundef %4, i32 noundef %5) #0 {
  %7 = alloca i32, align 4
  %8 = alloca ptr, align 8
  %9 = alloca i32, align 4
  %10 = alloca i32, align 4
  %11 = alloca i32, align 4
  %12 = alloca i32, align 4
  %13 = alloca i32, align 4
  %14 = alloca [4 x double], align 16
  %15 = alloca i32, align 4
  store ptr %0, ptr %8, align 8
  store i32 %1, ptr %9, align 4
  store i32 %2, ptr %10, align 4
  store i32 %3, ptr %11, align 4
  store i32 %4, ptr %12, align 4
  store i32 %5, ptr %13, align 4
  call void @llvm.memset.p0.i64(ptr align 16 %14, i8 0, i64 32, i1 false)
  %16 = load ptr, ptr %8, align 8
  %17 = call i32 @mlib_ImageGetType(ptr noundef %16)
  store i32 %17, ptr %15, align 4
  %18 = load i32, ptr %15, align 4
  %19 = icmp eq i32 %18, 4
  br i1 %19, label %23, label %20

20:                                               ; preds = %6
  %21 = load i32, ptr %15, align 4
  %22 = icmp eq i32 %21, 5
  br i1 %22, label %23, label %32

23:                                               ; preds = %20, %6
  %24 = load ptr, ptr %8, align 8
  %25 = load i32, ptr %9, align 4
  %26 = load i32, ptr %10, align 4
  %27 = load i32, ptr %11, align 4
  %28 = load i32, ptr %12, align 4
  %29 = getelementptr inbounds [4 x double], ptr %14, i64 0, i64 0
  %30 = load i32, ptr %13, align 4
  %31 = call i32 @mlib_ImageConvClearEdge_Fp(ptr noundef %24, i32 noundef %25, i32 noundef %26, i32 noundef %27, i32 noundef %28, ptr noundef %29, i32 noundef %30)
  store i32 %31, ptr %7, align 4
  br label %41

32:                                               ; preds = %20
  %33 = load ptr, ptr %8, align 8
  %34 = load i32, ptr %9, align 4
  %35 = load i32, ptr %10, align 4
  %36 = load i32, ptr %11, align 4
  %37 = load i32, ptr %12, align 4
  %38 = getelementptr inbounds [4 x double], ptr %14, i64 0, i64 0
  %39 = load i32, ptr %13, align 4
  %40 = call i32 @mlib_ImageConvClearEdge(ptr noundef %33, i32 noundef %34, i32 noundef %35, i32 noundef %36, i32 noundef %37, ptr noundef %38, i32 noundef %39)
  store i32 %40, ptr %7, align 4
  br label %41

41:                                               ; preds = %32, %23
  %42 = load i32, ptr %7, align 4
  ret i32 %42
}