; Function Attrs: nounwind uwtable
define hidden i32 @mlib_ImageConvZeroEdge(ptr noundef %0, i32 noundef %1, i32 noundef %2, i32 noundef %3, i32 noundef %4, i32 noundef %5) local_unnamed_addr #0 {
  %7 = alloca [4 x double], align 16
  call void @llvm.memset.p0.i64(ptr noundef nonnull align 16 dereferenceable(32) %7, i8 0, i64 32, i1 false)
  %.val = load i32, ptr %0, align 8
  %8 = and i32 %.val, -2
  %or.cond = icmp eq i32 %8, 4
  br i1 %or.cond, label %9, label %11

9:                                                ; preds = %6
  %10 = call i32 @mlib_ImageConvClearEdge_Fp(ptr noundef nonnull %0, i32 noundef %1, i32 noundef %2, i32 noundef %3, i32 noundef %4, ptr noundef nonnull %7, i32 noundef %5) #3
  br label %13

11:                                               ; preds = %6
  %12 = call i32 @mlib_ImageConvClearEdge(ptr noundef nonnull %0, i32 noundef %1, i32 noundef %2, i32 noundef %3, i32 noundef %4, ptr noundef nonnull %7, i32 noundef %5)
  br label %13

13:                                               ; preds = %11, %9
  %.0 = phi i32 [ %10, %9 ], [ %12, %11 ]
  ret i32 %.0
}